target datalayout = "e-m:e-p270:32:32-p271:32:32-p272:64:64-i64:64-i128:128-f80:128-n8:16:32:64-S128"
target triple = "x86_64-pc-linux-gnu"

%union.anon = type { i32 }
%struct.LZ4_unalign16 = type { i16 }

@__const._ZL18LZ4_isLittleEndianv.one = private unnamed_addr constant %union.anon { i32 1 }, align 4

; Function Attrs: mustprogress nounwind uwtable
define internal noundef zeroext i16 @_ZL10LZ4_read16PKv(ptr noundef %0) #0 {
  %2 = alloca ptr, align 8
  store ptr %0, ptr %2, align 8, !tbaa !10
  %3 = load ptr, ptr %2, align 8, !tbaa !10
  %4 = getelementptr inbounds nuw %struct.LZ4_unalign16, ptr %3, i32 0, i32 0
  %5 = load i16, ptr %4, align 1, !tbaa !76
  ret i16 %5
}

; Function Attrs: mustprogress nounwind uwtable
define internal noundef i32 @_ZL18LZ4_isLittleEndianv() #0 {
  %1 = alloca %union.anon, align 4
  call void @llvm.lifetime.start.p0(i64 4, ptr %1) #12
  call void @llvm.memcpy.p0.p0.i64(ptr align 4 %1, ptr align 4 @__const._ZL18LZ4_isLittleEndianv.one, i64 4, i1 false)
  %2 = getelementptr inbounds [4 x i8], ptr %1, i64 0, i64 0
  %3 = load i8, ptr %2, align 4, !tbaa !28
  %4 = zext i8 %3 to i32
  call void @llvm.lifetime.end.p0(i64 4, ptr %1) #12
  ret i32 %4
}

; Function Attrs: mustprogress nounwind uwtable
define internal noundef zeroext i16 @_ZL12LZ4_readLE16PKv(ptr noundef %0) #0 {
  %2 = alloca i16, align 2
  %3 = alloca ptr, align 8
  %4 = alloca ptr, align 8
  store ptr %0, ptr %3, align 8, !tbaa !10
  %5 = call noundef i32 @_ZL18LZ4_isLittleEndianv()
  %6 = icmp ne i32 %5, 0
  br i1 %6, label %7, label %10

7:                                                ; preds = %1
  %8 = load ptr, ptr %3, align 8, !tbaa !10
  %9 = call noundef zeroext i16 @_ZL10LZ4_read16PKv(ptr noundef %8)
  store i16 %9, ptr %2, align 2
  br label %24

10:                                               ; preds = %1
  call void @llvm.lifetime.start.p0(i64 8, ptr %4) #12
  %11 = load ptr, ptr %3, align 8, !tbaa !10
  store ptr %11, ptr %4, align 8, !tbaa !12
  %12 = load ptr, ptr %4, align 8, !tbaa !12
  %13 = getelementptr inbounds i8, ptr %12, i64 0
  %14 = load i8, ptr %13, align 1, !tbaa !28
  %15 = zext i8 %14 to i16
  %16 = zext i16 %15 to i32
  %17 = load ptr, ptr %4, align 8, !tbaa !12
  %18 = getelementptr inbounds i8, ptr %17, i64 1
  %19 = load i8, ptr %18, align 1, !tbaa !28
  %20 = zext i8 %19 to i32
  %21 = shl i32 %20, 8
  %22 = add nsw i32 %16, %21
  %23 = trunc i32 %22 to i16
  store i16 %23, ptr %2, align 2
  call void @llvm.lifetime.end.p0(i64 8, ptr %4) #12
  br label %24

24:                                               ; preds = %10, %7
  %25 = load i16, ptr %2, align 2
  ret i16 %25
}

; Function Attrs: mustprogress nounwind uwtable
define internal noundef i64 @_ZL25read_long_length_no_checkPPKh(ptr noundef %0) #0 {
  %2 = alloca ptr, align 8
  %3 = alloca i64, align 8
  %4 = alloca i64, align 8
  store ptr %0, ptr %2, align 8, !tbaa !69
  call void @llvm.lifetime.start.p0(i64 8, ptr %3) #12
  call void @llvm.lifetime.start.p0(i64 8, ptr %4) #12
  store i64 0, ptr %4, align 8, !tbaa !18
  br label %5

5:                                                ; preds = %16, %1
  %6 = load ptr, ptr %2, align 8, !tbaa !69
  %7 = load ptr, ptr %6, align 8, !tbaa !12
  %8 = load i8, ptr %7, align 1, !tbaa !28
  %9 = zext i8 %8 to i64
  store i64 %9, ptr %3, align 8, !tbaa !18
  %10 = load ptr, ptr %2, align 8, !tbaa !69
  %11 = load ptr, ptr %10, align 8, !tbaa !12
  %12 = getelementptr inbounds nuw i8, ptr %11, i32 1
  store ptr %12, ptr %10, align 8, !tbaa !12
  %13 = load i64, ptr %3, align 8, !tbaa !18
  %14 = load i64, ptr %4, align 8, !tbaa !18
  %15 = add i64 %14, %13
  store i64 %15, ptr %4, align 8, !tbaa !18
  br label %16

16:                                               ; preds = %5
  %17 = load i64, ptr %3, align 8, !tbaa !18
  %18 = icmp eq i64 %17, 255
  br i1 %18, label %5, label %19, !llvm.loop !83

19:                                               ; preds = %16
  %20 = load i64, ptr %4, align 8, !tbaa !18
  call void @llvm.lifetime.end.p0(i64 8, ptr %4) #12
  call void @llvm.lifetime.end.p0(i64 8, ptr %3) #12
  ret i64 %20
}

; Function Attrs: alwaysinline mustprogress uwtable
define internal noundef i32 @_ZL29LZ4_decompress_unsafe_genericPKhPhimS0_m(ptr noundef %0, ptr noundef %1, i32 noundef %2, i64 noundef %3, ptr noundef %4, i64 noundef %5) #3 {
  %7 = alloca i32, align 4
  %8 = alloca ptr, align 8
  %9 = alloca ptr, align 8
  %10 = alloca i32, align 4
  %11 = alloca i64, align 8
  %12 = alloca ptr, align 8
  %13 = alloca i64, align 8
  %14 = alloca ptr, align 8
  %15 = alloca ptr, align 8
  %16 = alloca ptr, align 8
  %17 = alloca ptr, align 8
  %18 = alloca i32, align 4
  %19 = alloca i64, align 8
  %20 = alloca i32, align 4
  %21 = alloca i64, align 8
  %22 = alloca i64, align 8
  %23 = alloca ptr, align 8
  %24 = alloca ptr, align 8
  %25 = alloca ptr, align 8
  %26 = alloca i64, align 8
  %27 = alloca i64, align 8
  store ptr %0, ptr %8, align 8, !tbaa !12
  store ptr %1, ptr %9, align 8, !tbaa !12
  store i32 %2, ptr %10, align 4, !tbaa !6
  store i64 %3, ptr %11, align 8, !tbaa !18
  store ptr %4, ptr %12, align 8, !tbaa !12
  store i64 %5, ptr %13, align 8, !tbaa !18
  call void @llvm.lifetime.start.p0(i64 8, ptr %14) #12
  %28 = load ptr, ptr %8, align 8, !tbaa !12
  store ptr %28, ptr %14, align 8, !tbaa !12
  call void @llvm.lifetime.start.p0(i64 8, ptr %15) #12
  %29 = load ptr, ptr %9, align 8, !tbaa !12
  store ptr %29, ptr %15, align 8, !tbaa !12
  call void @llvm.lifetime.start.p0(i64 8, ptr %16) #12
  %30 = load ptr, ptr %9, align 8, !tbaa !12
  %31 = load i32, ptr %10, align 4, !tbaa !6
  %32 = sext i32 %31 to i64
  %33 = getelementptr inbounds i8, ptr %30, i64 %32
  store ptr %33, ptr %16, align 8, !tbaa !12
  call void @llvm.lifetime.start.p0(i64 8, ptr %17) #12
  %34 = load ptr, ptr %9, align 8, !tbaa !12
  %35 = load i64, ptr %11, align 8, !tbaa !18
  %36 = sub i64 0, %35
  %37 = getelementptr inbounds i8, ptr %34, i64 %36
  store ptr %37, ptr %17, align 8, !tbaa !12
  %38 = load ptr, ptr %12, align 8, !tbaa !12
  %39 = icmp eq ptr %38, null
  br i1 %39, label %40, label %41

40:                                               ; preds = %6
  br label %41

41:                                               ; preds = %40, %6
  br label %42

42:                                               ; preds = %217, %41
  br label %43

43:                                               ; preds = %42
  call void @llvm.lifetime.start.p0(i64 4, ptr %18) #12
  %44 = load ptr, ptr %14, align 8, !tbaa !12
  %45 = getelementptr inbounds nuw i8, ptr %44, i32 1
  store ptr %45, ptr %14, align 8, !tbaa !12
  %46 = load i8, ptr %44, align 1, !tbaa !28
  %47 = zext i8 %46 to i32
  store i32 %47, ptr %18, align 4, !tbaa !6
  call void @llvm.lifetime.start.p0(i64 8, ptr %19) #12
  %48 = load i32, ptr %18, align 4, !tbaa !6
  %49 = lshr i32 %48, 4
  %50 = zext i32 %49 to i64
  store i64 %50, ptr %19, align 8, !tbaa !18
  %51 = load i64, ptr %19, align 8, !tbaa !18
  %52 = icmp eq i64 %51, 15
  br i1 %52, label %53, label %57

53:                                               ; preds = %43
  %54 = call noundef i64 @_ZL25read_long_length_no_checkPPKh(ptr noundef %14)
  %55 = load i64, ptr %19, align 8, !tbaa !18
  %56 = add i64 %55, %54
  store i64 %56, ptr %19, align 8, !tbaa !18
  br label %57

57:                                               ; preds = %53, %43
  %58 = load ptr, ptr %16, align 8, !tbaa !12
  %59 = load ptr, ptr %15, align 8, !tbaa !12
  %60 = ptrtoint ptr %58 to i64
  %61 = ptrtoint ptr %59 to i64
  %62 = sub i64 %60, %61
  %63 = load i64, ptr %19, align 8, !tbaa !18
  %64 = icmp ult i64 %62, %63
  br i1 %64, label %65, label %66

65:                                               ; preds = %57
  store i32 -1, ptr %7, align 4
  store i32 1, ptr %20, align 4
  br label %89

66:                                               ; preds = %57
  %67 = load ptr, ptr %15, align 8, !tbaa !12
  %68 = load ptr, ptr %14, align 8, !tbaa !12
  %69 = load i64, ptr %19, align 8, !tbaa !18
  call void @llvm.memmove.p0.p0.i64(ptr align 1 %67, ptr align 1 %68, i64 %69, i1 false)
  %70 = load i64, ptr %19, align 8, !tbaa !18
  %71 = load ptr, ptr %15, align 8, !tbaa !12
  %72 = getelementptr inbounds nuw i8, ptr %71, i64 %70
  store ptr %72, ptr %15, align 8, !tbaa !12
  %73 = load i64, ptr %19, align 8, !tbaa !18
  %74 = load ptr, ptr %14, align 8, !tbaa !12
  %75 = getelementptr inbounds nuw i8, ptr %74, i64 %73
  store ptr %75, ptr %14, align 8, !tbaa !12
  %76 = load ptr, ptr %16, align 8, !tbaa !12
  %77 = load ptr, ptr %15, align 8, !tbaa !12
  %78 = ptrtoint ptr %76 to i64
  %79 = ptrtoint ptr %77 to i64
  %80 = sub i64 %78, %79
  %81 = icmp ult i64 %80, 12
  br i1 %81, label %82, label %88

82:                                               ; preds = %66
  %83 = load ptr, ptr %15, align 8, !tbaa !12
  %84 = load ptr, ptr %16, align 8, !tbaa !12
  %85 = icmp eq ptr %83, %84
  br i1 %85, label %86, label %87

86:                                               ; preds = %82
  store i32 3, ptr %20, align 4
  br label %89

87:                                               ; preds = %82
  store i32 -1, ptr %7, align 4
  store i32 1, ptr %20, align 4
  br label %89

88:                                               ; preds = %66
  store i32 0, ptr %20, align 4
  br label %89

89:                                               ; preds = %88, %87, %86, %65
  call void @llvm.lifetime.end.p0(i64 8, ptr %19) #12
  %90 = load i32, ptr %20, align 4
  switch i32 %90, label %215 [
    i32 0, label %91
  ]

91:                                               ; preds = %89
  call void @llvm.lifetime.start.p0(i64 8, ptr %21) #12
  %92 = load i32, ptr %18, align 4, !tbaa !6
  %93 = and i32 %92, 15
  %94 = zext i32 %93 to i64
  store i64 %94, ptr %21, align 8, !tbaa !18
  call void @llvm.lifetime.start.p0(i64 8, ptr %22) #12
  %95 = load ptr, ptr %14, align 8, !tbaa !12
  %96 = call noundef zeroext i16 @_ZL12LZ4_readLE16PKv(ptr noundef %95)
  %97 = zext i16 %96 to i64
  store i64 %97, ptr %22, align 8, !tbaa !18
  %98 = load ptr, ptr %14, align 8, !tbaa !12
  %99 = getelementptr inbounds i8, ptr %98, i64 2
  store ptr %99, ptr %14, align 8, !tbaa !12
  %100 = load i64, ptr %21, align 8, !tbaa !18
  %101 = icmp eq i64 %100, 15
  br i1 %101, label %102, label %106

102:                                              ; preds = %91
  %103 = call noundef i64 @_ZL25read_long_length_no_checkPPKh(ptr noundef %14)
  %104 = load i64, ptr %21, align 8, !tbaa !18
  %105 = add i64 %104, %103
  store i64 %105, ptr %21, align 8, !tbaa !18
  br label %106

106:                                              ; preds = %102, %91
  %107 = load i64, ptr %21, align 8, !tbaa !18
  %108 = add i64 %107, 4
  store i64 %108, ptr %21, align 8, !tbaa !18
  %109 = load ptr, ptr %16, align 8, !tbaa !12
  %110 = load ptr, ptr %15, align 8, !tbaa !12
  %111 = ptrtoint ptr %109 to i64
  %112 = ptrtoint ptr %110 to i64
  %113 = sub i64 %111, %112
  %114 = load i64, ptr %21, align 8, !tbaa !18
  %115 = icmp ult i64 %113, %114
  br i1 %115, label %116, label %117

116:                                              ; preds = %106
  store i32 -1, ptr %7, align 4
  store i32 1, ptr %20, align 4
  br label %212

117:                                              ; preds = %106
  call void @llvm.lifetime.start.p0(i64 8, ptr %23) #12
  %118 = load ptr, ptr %15, align 8, !tbaa !12
  %119 = load i64, ptr %22, align 8, !tbaa !18
  %120 = sub i64 0, %119
  %121 = getelementptr inbounds i8, ptr %118, i64 %120
  store ptr %121, ptr %23, align 8, !tbaa !12
  %122 = load i64, ptr %22, align 8, !tbaa !18
  %123 = load ptr, ptr %15, align 8, !tbaa !12
  %124 = load ptr, ptr %17, align 8, !tbaa !12
  %125 = ptrtoint ptr %123 to i64
  %126 = ptrtoint ptr %124 to i64
  %127 = sub i64 %125, %126
  %128 = load i64, ptr %13, align 8, !tbaa !18
  %129 = add i64 %127, %128
  %130 = icmp ugt i64 %122, %129
  br i1 %130, label %131, label %132

131:                                              ; preds = %117
  store i32 -1, ptr %7, align 4
  store i32 1, ptr %20, align 4
  br label %198

132:                                              ; preds = %117
  %133 = load i64, ptr %22, align 8, !tbaa !18
  %134 = load ptr, ptr %15, align 8, !tbaa !12
  %135 = load ptr, ptr %17, align 8, !tbaa !12
  %136 = ptrtoint ptr %134 to i64
  %137 = ptrtoint ptr %135 to i64
  %138 = sub i64 %136, %137
  %139 = icmp ugt i64 %133, %138
  br i1 %139, label %140, label %181

140:                                              ; preds = %132
  call void @llvm.lifetime.start.p0(i64 8, ptr %24) #12
  %141 = load ptr, ptr %12, align 8, !tbaa !12
  %142 = load i64, ptr %13, align 8, !tbaa !18
  %143 = getelementptr inbounds nuw i8, ptr %141, i64 %142
  store ptr %143, ptr %24, align 8, !tbaa !12
  call void @llvm.lifetime.start.p0(i64 8, ptr %25) #12
  %144 = load ptr, ptr %24, align 8, !tbaa !12
  %145 = load i64, ptr %22, align 8, !tbaa !18
  %146 = load ptr, ptr %15, align 8, !tbaa !12
  %147 = load ptr, ptr %17, align 8, !tbaa !12
  %148 = ptrtoint ptr %146 to i64
  %149 = ptrtoint ptr %147 to i64
  %150 = sub i64 %148, %149
  %151 = sub i64 %145, %150
  %152 = sub i64 0, %151
  %153 = getelementptr inbounds i8, ptr %144, i64 %152
  store ptr %153, ptr %25, align 8, !tbaa !12
  call void @llvm.lifetime.start.p0(i64 8, ptr %26) #12
  %154 = load ptr, ptr %24, align 8, !tbaa !12
  %155 = load ptr, ptr %25, align 8, !tbaa !12
  %156 = ptrtoint ptr %154 to i64
  %157 = ptrtoint ptr %155 to i64
  %158 = sub i64 %156, %157
  store i64 %158, ptr %26, align 8, !tbaa !18
  %159 = load i64, ptr %26, align 8, !tbaa !18
  %160 = load i64, ptr %21, align 8, !tbaa !18
  %161 = icmp ugt i64 %159, %160
  br i1 %161, label %162, label %169

162:                                              ; preds = %140
  %163 = load ptr, ptr %15, align 8, !tbaa !12
  %164 = load ptr, ptr %25, align 8, !tbaa !12
  %165 = load i64, ptr %21, align 8, !tbaa !18
  call void @llvm.memmove.p0.p0.i64(ptr align 1 %163, ptr align 1 %164, i64 %165, i1 false)
  %166 = load i64, ptr %21, align 8, !tbaa !18
  %167 = load ptr, ptr %15, align 8, !tbaa !12
  %168 = getelementptr inbounds nuw i8, ptr %167, i64 %166
  store ptr %168, ptr %15, align 8, !tbaa !12
  store i64 0, ptr %21, align 8, !tbaa !18
  br label %179

169:                                              ; preds = %140
  %170 = load ptr, ptr %15, align 8, !tbaa !12
  %171 = load ptr, ptr %25, align 8, !tbaa !12
  %172 = load i64, ptr %26, align 8, !tbaa !18
  call void @llvm.memmove.p0.p0.i64(ptr align 1 %170, ptr align 1 %171, i64 %172, i1 false)
  %173 = load i64, ptr %26, align 8, !tbaa !18
  %174 = load ptr, ptr %15, align 8, !tbaa !12
  %175 = getelementptr inbounds nuw i8, ptr %174, i64 %173
  store ptr %175, ptr %15, align 8, !tbaa !12
  %176 = load i64, ptr %26, align 8, !tbaa !18
  %177 = load i64, ptr %21, align 8, !tbaa !18
  %178 = sub i64 %177, %176
  store i64 %178, ptr %21, align 8, !tbaa !18
  br label %179

179:                                              ; preds = %169, %162
  %180 = load ptr, ptr %17, align 8, !tbaa !12
  store ptr %180, ptr %23, align 8, !tbaa !12
  call void @llvm.lifetime.end.p0(i64 8, ptr %26) #12
  call void @llvm.lifetime.end.p0(i64 8, ptr %25) #12
  call void @llvm.lifetime.end.p0(i64 8, ptr %24) #12
  br label %181

181:                                              ; preds = %179, %132
  call void @llvm.lifetime.start.p0(i64 8, ptr %27) #12
  store i64 0, ptr %27, align 8, !tbaa !18
  br label %182

182:                                              ; preds = %194, %181
  %183 = load i64, ptr %27, align 8, !tbaa !18
  %184 = load i64, ptr %21, align 8, !tbaa !18
  %185 = icmp ult i64 %183, %184
  br i1 %185, label %186, label %197

186:                                              ; preds = %182
  %187 = load ptr, ptr %23, align 8, !tbaa !12
  %188 = load i64, ptr %27, align 8, !tbaa !18
  %189 = getelementptr inbounds nuw i8, ptr %187, i64 %188
  %190 = load i8, ptr %189, align 1, !tbaa !28
  %191 = load ptr, ptr %15, align 8, !tbaa !12
  %192 = load i64, ptr %27, align 8, !tbaa !18
  %193 = getelementptr inbounds nuw i8, ptr %191, i64 %192
  store i8 %190, ptr %193, align 1, !tbaa !28
  br label %194

194:                                              ; preds = %186
  %195 = load i64, ptr %27, align 8, !tbaa !18
  %196 = add i64 %195, 1
  store i64 %196, ptr %27, align 8, !tbaa !18
  br label %182, !llvm.loop !52

197:                                              ; preds = %182
  call void @llvm.lifetime.end.p0(i64 8, ptr %27) #12
  store i32 0, ptr %20, align 4
  br label %198

198:                                              ; preds = %197, %131
  call void @llvm.lifetime.end.p0(i64 8, ptr %23) #12
  %199 = load i32, ptr %20, align 4
  switch i32 %199, label %212 [
    i32 0, label %200
  ]

200:                                              ; preds = %198
  %201 = load i64, ptr %21, align 8, !tbaa !18
  %202 = load ptr, ptr %15, align 8, !tbaa !12
  %203 = getelementptr inbounds nuw i8, ptr %202, i64 %201
  store ptr %203, ptr %15, align 8, !tbaa !12
  %204 = load ptr, ptr %16, align 8, !tbaa !12
  %205 = load ptr, ptr %15, align 8, !tbaa !12
  %206 = ptrtoint ptr %204 to i64
  %207 = ptrtoint ptr %205 to i64
  %208 = sub i64 %206, %207
  %209 = icmp ult i64 %208, 5
  br i1 %209, label %210, label %211

210:                                              ; preds = %200
  store i32 -1, ptr %7, align 4
  store i32 1, ptr %20, align 4
  br label %212

211:                                              ; preds = %200
  store i32 0, ptr %20, align 4
  br label %212

212:                                              ; preds = %211, %210, %198, %116
  call void @llvm.lifetime.end.p0(i64 8, ptr %22) #12
  call void @llvm.lifetime.end.p0(i64 8, ptr %21) #12
  %213 = load i32, ptr %20, align 4
  switch i32 %213, label %215 [
    i32 0, label %214
  ]

214:                                              ; preds = %212
  store i32 0, ptr %20, align 4
  br label %215

215:                                              ; preds = %214, %212, %89
  call void @llvm.lifetime.end.p0(i64 4, ptr %18) #12
  %216 = load i32, ptr %20, align 4
  switch i32 %216, label %225 [
    i32 0, label %217
    i32 3, label %218
  ]

217:                                              ; preds = %215
  br label %42, !llvm.loop !53

218:                                              ; preds = %215
  %219 = load ptr, ptr %14, align 8, !tbaa !12
  %220 = load ptr, ptr %8, align 8, !tbaa !12
  %221 = ptrtoint ptr %219 to i64
  %222 = ptrtoint ptr %220 to i64
  %223 = sub i64 %221, %222
  %224 = trunc i64 %223 to i32
  store i32 %224, ptr %7, align 4
  store i32 1, ptr %20, align 4
  br label %225

225:                                              ; preds = %218, %215
  call void @llvm.lifetime.end.p0(i64 8, ptr %17) #12
  call void @llvm.lifetime.end.p0(i64 8, ptr %16) #12
  call void @llvm.lifetime.end.p0(i64 8, ptr %15) #12
  call void @llvm.lifetime.end.p0(i64 8, ptr %14) #12
  %226 = load i32, ptr %7, align 4
  ret i32 %226
}

; Function Attrs: mustprogress uwtable
define i32 @LZ4_decompress_fast(ptr noundef %0, ptr noundef %1, i32 noundef %2) #1 {
  %4 = alloca ptr, align 8
  %5 = alloca ptr, align 8
  %6 = alloca i32, align 4
  store ptr %0, ptr %4, align 8, !tbaa !12
  store ptr %1, ptr %5, align 8, !tbaa !12
  store i32 %2, ptr %6, align 4, !tbaa !6
  %7 = load ptr, ptr %4, align 8, !tbaa !12
  %8 = load ptr, ptr %5, align 8, !tbaa !12
  %9 = load i32, ptr %6, align 4, !tbaa !6
  %10 = call noundef i32 @_ZL29LZ4_decompress_unsafe_genericPKhPhimS0_m(ptr noundef %7, ptr noundef %8, i32 noundef %9, i64 noundef 0, ptr noundef null, i64 noundef 0)
  ret i32 %10
}

; Function Attrs: mustprogress uwtable
define i32 @LZ4_uncompress(ptr noundef %0, ptr noundef %1, i32 noundef %2) #1 {
  %4 = alloca ptr, align 8
  %5 = alloca ptr, align 8
  %6 = alloca i32, align 4
  store ptr %0, ptr %4, align 8, !tbaa !12
  store ptr %1, ptr %5, align 8, !tbaa !12
  store i32 %2, ptr %6, align 4, !tbaa !6
  %7 = load ptr, ptr %4, align 8, !tbaa !12
  %8 = load ptr, ptr %5, align 8, !tbaa !12
  %9 = load i32, ptr %6, align 4, !tbaa !6
  %10 = call i32 @LZ4_decompress_fast(ptr noundef %7, ptr noundef %8, i32 noundef %9)
  ret i32 %10
}